Certificate:
    Data:
        Version: 3 (0x2)
        Serial Number: 9 (0x9)
    Signature Algorithm: sha256WithRSAEncryption
        Issuer: C=GB, ST=Surrey, L=Egham, O=TIHM Project (RHUL), OU=ISG, CN=TIHM CA
        Validity
            Not Before: Jan 24 16:50:01 2017 GMT
            Not After : Jan 24 16:50:01 2020 GMT
        Subject: C=GB, ST=london, L=london, O=University of Surrey, OU=5G Centre, CN=test test
        Subject Public Key Info:
            Public Key Algorithm: rsaEncryption
                Public-Key: (2048 bit)
                Modulus:
                    00:cc:97:01:f3:72:58:85:7c:25:46:25:04:19:4c:
                    b1:63:64:af:20:5b:f3:1a:1d:c5:ac:2b:ea:02:a8:
                    9c:04:a3:a1:90:9e:0b:af:d2:46:38:e8:9f:56:42:
                    30:d1:46:d3:f0:5c:d0:f7:31:48:79:a7:ed:4f:39:
                    36:2f:2b:f8:c1:34:1e:59:3e:6c:9d:44:3d:52:b3:
                    3c:90:21:52:8f:b8:5a:f4:e4:1f:b0:4e:90:39:cc:
                    71:c7:87:7a:0b:4f:ba:d4:b1:25:0e:e5:cd:17:91:
                    d3:b6:61:e2:bd:09:0b:6d:61:fa:99:76:e5:64:fc:
                    c6:3f:21:3d:ed:5d:9e:8f:aa:76:32:44:b7:62:e0:
                    68:47:8d:d0:bf:d1:5f:63:78:cb:08:7d:98:02:16:
                    ca:a7:48:70:62:47:5a:9b:5c:34:7c:77:57:73:c6:
                    3c:a9:a9:76:c7:d1:57:f2:26:64:ab:71:de:10:2f:
                    7e:0e:cf:a6:2c:2c:e5:b5:2f:68:b0:21:78:0f:b4:
                    c8:e8:eb:2b:57:5d:e7:90:ac:57:76:62:ed:6b:ab:
                    52:70:8e:5c:d1:98:78:7d:0e:ca:75:6b:1f:52:29:
                    5f:d9:57:81:df:38:ca:d6:3e:7e:7c:73:0c:59:0c:
                    d8:ac:52:8c:61:c9:43:a1:5c:d7:1c:af:bb:3b:f4:
                    01:d9
                Exponent: 65537 (0x10001)
        X509v3 extensions:
            X509v3 Basic Constraints: 
                CA:FALSE
            X509v3 Key Usage: 
                Digital Signature, Non Repudiation, Key Encipherment
            X509v3 Extended Key Usage: 
                OCSP Signing
            Authority Information Access: 
                OCSP - URI:http://ocsp.pki.tihm.org:8888

    Signature Algorithm: sha256WithRSAEncryption
         1a:c9:45:76:ee:81:52:2f:0f:25:14:7e:f3:74:26:a5:d4:30:
         d2:3d:63:d1:24:04:13:b3:d4:5f:52:04:13:8b:dd:48:30:55:
         31:50:cb:6a:ed:15:46:99:52:55:3d:fb:15:5c:bc:04:0c:49:
         3b:f4:63:f2:fa:95:ba:73:17:ff:88:3f:11:3f:0e:00:af:ce:
         53:ef:bc:52:72:a3:16:89:38:71:5c:7a:40:e4:b0:b1:97:97:
         90:16:b2:6b:f2:2a:ea:9f:be:51:83:83:cb:ea:68:c4:0f:d3:
         d8:e7:f5:fb:24:db:c2:8f:cf:f5:7d:a1:72:b7:e3:84:b6:64:
         b0:7d:14:d6:c3:54:4d:d6:8a:ff:f8:ff:c1:a7:67:26:f9:50:
         d9:55:55:9d:27:6c:75:b6:c2:e6:99:29:15:0a:f9:34:1d:ca:
         c6:29:4f:ca:16:46:32:ee:70:af:4e:e2:d7:a3:57:4f:3c:b7:
         b4:4d:c4:8e:e6:b9:10:28:9f:28:a8:dc:41:48:cf:07:20:c4:
         91:6d:04:48:a7:4f:fd:f3:dd:0b:46:d4:9b:c8:1f:7b:94:19:
         41:40:1b:c5:76:aa:bf:c9:f1:6c:61:24:4b:64:a8:51:80:9c:
         97:2b:3e:ac:ce:a8:7f:ad:e4:21:c3:99:b8:ec:b7:14:ca:19:
         82:62:6a:3f
-----BEGIN CERTIFICATE-----
MIIDxzCCAq+gAwIBAgIBCTANBgkqhkiG9w0BAQsFADBsMQswCQYDVQQGEwJHQjEP
MA0GA1UECAwGU3VycmV5MQ4wDAYDVQQHDAVFZ2hhbTEcMBoGA1UECgwTVElITSBQ
cm9qZWN0IChSSFVMKTEMMAoGA1UECwwDSVNHMRAwDgYDVQQDDAdUSUhNIENBMB4X
DTE3MDEyNDE2NTAwMVoXDTIwMDEyNDE2NTAwMVowdjELMAkGA1UEBhMCR0IxDzAN
BgNVBAgMBmxvbmRvbjEPMA0GA1UEBwwGbG9uZG9uMR0wGwYDVQQKDBRVbml2ZXJz
aXR5IG9mIFN1cnJleTESMBAGA1UECwwJNUcgQ2VudHJlMRIwEAYDVQQDDAl0ZXN0
IHRlc3QwggEiMA0GCSqGSIb3DQEBAQUAA4IBDwAwggEKAoIBAQDMlwHzcliFfCVG
JQQZTLFjZK8gW/MaHcWsK+oCqJwEo6GQnguv0kY46J9WQjDRRtPwXND3MUh5p+1P
OTYvK/jBNB5ZPmydRD1SszyQIVKPuFr05B+wTpA5zHHHh3oLT7rUsSUO5c0XkdO2
YeK9CQttYfqZduVk/MY/IT3tXZ6PqnYyRLdi4GhHjdC/0V9jeMsIfZgCFsqnSHBi
R1qbXDR8d1dzxjypqXbH0VfyJmSrcd4QL34Oz6YsLOW1L2iwIXgPtMjo6ytXXeeQ
rFd2Yu1rq1JwjlzRmHh9Dsp1ax9SKV/ZV4HfOMrWPn58cwxZDNisUoxhyUOhXNcc
r7s79AHZAgMBAAGjajBoMAkGA1UdEwQCMAAwCwYDVR0PBAQDAgXgMBMGA1UdJQQM
MAoGCCsGAQUFBwMJMDkGCCsGAQUFBwEBBC0wKzApBggrBgEFBQcwAYYdaHR0cDov
L29jc3AucGtpLnRpaG0ub3JnOjg4ODgwDQYJKoZIhvcNAQELBQADggEBABrJRXbu
gVIvDyUUfvN0JqXUMNI9Y9EkBBOz1F9SBBOL3UgwVTFQy2rtFUaZUlU9+xVcvAQM
STv0Y/L6lbpzF/+IPxE/DgCvzlPvvFJyoxaJOHFcekDksLGXl5AWsmvyKuqfvlGD
g8vqaMQP09jn9fsk28KPz/V9oXK344S2ZLB9FNbDVE3Wiv/4/8GnZyb5UNlVVZ0n
bHW2wuaZKRUK+TQdysYpT8oWRjLucK9O4tejV088t7RNxI7muRAonyio3EFIzwcg
xJFtBEinT/3z3QtG1JvIH3uUGUFAG8V2qr/J8WxhJEtkqFGAnJcrPqzOqH+t5CHD
mbjstxTKGYJiaj8=
-----END CERTIFICATE-----
