Certificate:
    Data:
        Version: 3 (0x2)
        Serial Number: 17 (0x11)
    Signature Algorithm: sha256WithRSAEncryption
        Issuer: C=GB, ST=Surrey, L=Egham, O=TIHM Project (RHUL), OU=ISG, CN=TIHM CA
        Validity
            Not Before: Jan 25 17:10:01 2017 GMT
            Not After : Jan 25 17:10:01 2020 GMT
        Subject: C=GB, ST=London, L=Uxbridge, O=Docobo, OU=ICG Device, CN=07eb0168-7e9a-441c-b3eb-ce4c3ab89f09
        Subject Public Key Info:
            Public Key Algorithm: rsaEncryption
                Public-Key: (2048 bit)
                Modulus:
                    00:bd:0f:7a:2b:36:ad:f6:19:19:d1:ff:21:6a:32:
                    56:a3:4b:34:02:94:07:19:60:c3:92:8c:3e:69:dc:
                    c5:8d:15:a9:22:6f:62:df:d0:0d:14:d0:9d:be:9f:
                    63:76:0f:d8:02:0f:1e:d7:15:2f:da:78:e5:fd:3b:
                    0a:f3:ab:2c:14:0d:84:8b:0e:b7:da:cf:0c:07:71:
                    20:34:86:9b:ee:eb:eb:a0:ec:83:95:bd:4c:20:06:
                    39:ca:94:77:34:c8:e8:33:f5:d7:43:eb:35:ce:d9:
                    16:bd:ff:82:d8:75:d2:d5:67:13:cf:61:6a:87:4c:
                    6b:e2:06:c8:80:d8:94:82:a9:c9:ea:f5:df:58:1b:
                    9f:d3:71:7b:28:cc:f1:83:d2:12:7f:38:77:a8:0f:
                    ef:f8:b1:68:bb:5d:3e:1a:a0:6a:62:8c:13:a3:98:
                    4d:bc:46:a7:f0:38:d6:36:cc:19:67:cc:2e:c6:80:
                    93:15:fc:30:ea:15:cb:50:06:20:75:c1:bc:d7:09:
                    3d:1e:2d:07:33:6f:00:1d:38:9b:de:c8:7d:d8:cd:
                    f8:bf:de:4d:dd:e7:c3:3c:6c:3e:62:bf:da:c3:fa:
                    bc:03:a8:41:11:e5:6f:9d:21:77:c6:68:f1:b8:54:
                    53:97:b5:f8:96:ff:ac:85:12:62:6b:38:23:b4:c8:
                    17:fd
                Exponent: 65537 (0x10001)
        X509v3 extensions:
            X509v3 Basic Constraints: 
                CA:FALSE
            X509v3 Key Usage: 
                Digital Signature, Non Repudiation, Key Encipherment
            X509v3 Extended Key Usage: 
                OCSP Signing
            Authority Information Access: 
                OCSP - URI:http://ocsp.pki.tihm.org:8888

    Signature Algorithm: sha256WithRSAEncryption
         3c:71:2a:5f:75:12:c7:08:49:de:d5:da:32:e8:60:b2:d2:51:
         0e:86:a0:02:6e:a9:17:da:69:aa:30:e3:e1:c6:2f:9e:14:80:
         09:03:6f:3b:f8:05:31:06:de:8c:e5:55:4a:ac:1e:8a:48:f1:
         bb:35:82:df:90:8d:e9:45:42:7a:54:53:9a:6e:7f:de:a4:0f:
         ee:a8:87:70:b1:15:5f:a4:dc:ed:91:a1:a8:db:11:ac:16:0a:
         37:56:28:56:08:1c:0f:62:74:e0:3b:98:29:ba:b4:09:88:c1:
         a4:3d:5e:a8:d0:d9:27:6c:37:8c:d6:e0:c6:ce:8e:07:0c:0b:
         9b:01:a9:53:ea:38:fa:a2:1c:ba:9a:6f:24:8b:8b:3d:b0:f9:
         e5:8d:f4:b6:cc:2e:88:96:2b:40:d7:b7:8f:64:c6:88:2b:88:
         f5:b3:5b:97:44:3b:18:50:5e:4d:29:38:e7:d4:0d:0b:a4:b1:
         b1:66:9a:fc:40:e1:83:44:db:9a:52:72:8f:c2:99:50:94:e9:
         69:18:c0:5a:6e:94:a8:9c:de:00:de:5f:c1:bf:24:4f:6c:b0:
         ad:ba:ef:ea:aa:88:08:53:26:a1:80:9f:e3:1b:94:e6:43:c6:
         ef:61:70:a3:e5:35:96:3f:ea:65:96:98:a4:f9:2a:b4:9a:d5:
         9a:37:41:0d
-----BEGIN CERTIFICATE-----
MIID2DCCAsCgAwIBAgIBETANBgkqhkiG9w0BAQsFADBsMQswCQYDVQQGEwJHQjEP
MA0GA1UECAwGU3VycmV5MQ4wDAYDVQQHDAVFZ2hhbTEcMBoGA1UECgwTVElITSBQ
cm9qZWN0IChSSFVMKTEMMAoGA1UECwwDSVNHMRAwDgYDVQQDDAdUSUhNIENBMB4X
DTE3MDEyNTE3MTAwMVoXDTIwMDEyNTE3MTAwMVowgYYxCzAJBgNVBAYTAkdCMQ8w
DQYDVQQIDAZMb25kb24xETAPBgNVBAcMCFV4YnJpZGdlMQ8wDQYDVQQKDAZEb2Nv
Ym8xEzARBgNVBAsMCklDRyBEZXZpY2UxLTArBgNVBAMMJDA3ZWIwMTY4LTdlOWEt
NDQxYy1iM2ViLWNlNGMzYWI4OWYwOTCCASIwDQYJKoZIhvcNAQEBBQADggEPADCC
AQoCggEBAL0Peis2rfYZGdH/IWoyVqNLNAKUBxlgw5KMPmncxY0VqSJvYt/QDRTQ
nb6fY3YP2AIPHtcVL9p45f07CvOrLBQNhIsOt9rPDAdxIDSGm+7r66Dsg5W9TCAG
OcqUdzTI6DP110PrNc7ZFr3/gth10tVnE89haodMa+IGyIDYlIKpyer131gbn9Nx
eyjM8YPSEn84d6gP7/ixaLtdPhqgamKME6OYTbxGp/A41jbMGWfMLsaAkxX8MOoV
y1AGIHXBvNcJPR4tBzNvAB04m97IfdjN+L/eTd3nwzxsPmK/2sP6vAOoQRHlb50h
d8Zo8bhUU5e1+Jb/rIUSYms4I7TIF/0CAwEAAaNqMGgwCQYDVR0TBAIwADALBgNV
HQ8EBAMCBeAwEwYDVR0lBAwwCgYIKwYBBQUHAwkwOQYIKwYBBQUHAQEELTArMCkG
CCsGAQUFBzABhh1odHRwOi8vb2NzcC5wa2kudGlobS5vcmc6ODg4ODANBgkqhkiG
9w0BAQsFAAOCAQEAPHEqX3USxwhJ3tXaMuhgstJRDoagAm6pF9ppqjDj4cYvnhSA
CQNvO/gFMQbejOVVSqweikjxuzWC35CN6UVCelRTmm5/3qQP7qiHcLEVX6Tc7ZGh
qNsRrBYKN1YoVggcD2J04DuYKbq0CYjBpD1eqNDZJ2w3jNbgxs6OBwwLmwGpU+o4
+qIcuppvJIuLPbD55Y30tswuiJYrQNe3j2TGiCuI9bNbl0Q7GFBeTSk459QNC6Sx
sWaa/EDhg0TbmlJyj8KZUJTpaRjAWm6UqJzeAN5fwb8kT2ywrbrv6qqICFMmoYCf
4xuU5kPG72Fwo+U1lj/qZZaYpPkqtJrVmjdBDQ==
-----END CERTIFICATE-----
