Certificate:
    Data:
        Version: 3 (0x2)
        Serial Number: 1 (0x1)
    Signature Algorithm: sha256WithRSAEncryption
        Issuer: C=GB, ST=London, L=London, O=TIHM Certificatiothority, OU=IG, CN=TIHM CA
        Validity
            Not Before: Jan 16 23:17:52 2017 GMT
            Not After : Jan 16 23:17:52 2020 GMT
        Subject: C=GB, ST=Surrey, L=Guilford, O=Surrey University, OU=5G Centre, CN=Severin Skillman
        Subject Public Key Info:
            Public Key Algorithm: rsaEncryption
                Public-Key: (2048 bit)
                Modulus:
                    00:b9:29:42:db:41:08:77:c5:41:89:73:58:b9:2f:
                    b8:65:56:e5:71:ab:f4:96:0e:a3:19:60:92:4b:c8:
                    1a:f6:2e:c9:f6:cb:e7:f0:34:91:d6:5c:fc:40:f7:
                    3e:e3:33:3a:3a:68:a1:33:17:c4:88:66:b9:93:0d:
                    80:da:0e:04:71:44:0c:87:92:99:95:ac:dd:fa:48:
                    f0:1b:3c:bf:16:b5:52:30:79:91:1c:ce:23:96:de:
                    0b:c8:99:b9:a5:9d:a2:4f:fa:74:ed:77:34:44:b0:
                    f9:05:4a:7a:55:70:05:97:83:bd:43:f6:0a:d4:83:
                    19:d9:2d:a3:c3:82:74:9d:51:3a:98:4c:b7:a5:77:
                    66:d5:5e:c0:5f:1b:8b:b6:47:cd:f1:66:51:48:48:
                    67:27:0a:c9:83:ee:9b:17:a9:af:f1:9b:f3:09:9e:
                    62:8e:d2:48:29:fc:1a:dd:e6:29:fb:d8:ae:b4:94:
                    cd:fa:51:7f:ad:66:8a:75:26:b5:21:6f:53:b0:97:
                    b9:de:a9:61:32:2d:31:f1:00:03:2d:84:60:8e:9d:
                    ec:01:31:c2:35:7f:33:e3:2f:db:71:9d:3a:86:10:
                    73:33:18:6e:73:26:b7:60:e4:82:9d:50:33:41:39:
                    f0:04:02:3d:5c:4f:9d:d2:7b:2e:83:bd:e0:49:24:
                    cf:29
                Exponent: 65537 (0x10001)
        X509v3 extensions:
            X509v3 Basic Constraints: 
                CA:FALSE
            X509v3 Key Usage: 
                Digital Signature, Non Repudiation, Key Encipherment
            X509v3 Extended Key Usage: 
                OCSP Signing
    Signature Algorithm: sha256WithRSAEncryption
         96:79:c7:5d:6e:d0:3c:70:59:30:1e:97:2a:9f:f9:69:d3:e4:
         63:e1:00:97:27:81:5b:13:cf:f3:6a:64:6e:af:ac:27:83:11:
         6b:6c:ea:b9:55:fc:17:63:61:fa:a6:60:45:d6:71:32:8c:c2:
         74:8b:ee:30:37:79:0d:3d:e3:ff:74:06:d5:09:92:45:8f:0c:
         61:11:44:21:ac:bb:83:a2:56:94:cc:7f:37:4d:74:f2:59:bb:
         1f:cb:ae:f1:8e:b5:b2:b1:de:7d:95:ee:af:72:17:ba:f6:23:
         b8:39:70:58:4a:5c:6f:ba:27:ae:59:30:4d:10:6d:45:0c:10:
         90:54:ab:37:a2:81:cb:a2:1c:ea:b6:9e:d7:b8:eb:f0:71:e8:
         4f:f9:35:e0:9e:7e:f9:ec:84:d6:8e:2c:e2:ff:cc:66:bf:77:
         7c:1b:05:76:40:ff:40:ae:c7:e6:83:03:f7:99:00:e4:01:bb:
         64:1a:e7:65:08:35:01:dc:66:40:26:f8:37:68:04:70:95:f5:
         1c:0a:08:e4:20:cb:e3:70:61:91:de:8c:47:f0:99:bf:72:d7:
         f0:2e:32:67:fd:05:a6:bc:c9:77:a3:7f:89:e7:e5:72:d7:d2:
         36:23:98:45:5e:c6:c0:cc:bb:33:05:71:af:23:fd:a3:2d:e8:
         f6:20:30:fd
-----BEGIN CERTIFICATE-----
MIIDlzCCAn+gAwIBAgIBATANBgkqhkiG9w0BAQsFADBxMQswCQYDVQQGEwJHQjEP
MA0GA1UECAwGTG9uZG9uMQ8wDQYDVQQHDAZMb25kb24xITAfBgNVBAoMGFRJSE0g
Q2VydGlmaWNhdGlvdGhvcml0eTELMAkGA1UECwwCSUcxEDAOBgNVBAMMB1RJSE0g
Q0EwHhcNMTcwMTE2MjMxNzUyWhcNMjAwMTE2MjMxNzUyWjB8MQswCQYDVQQGEwJH
QjEPMA0GA1UECAwGU3VycmV5MREwDwYDVQQHDAhHdWlsZm9yZDEaMBgGA1UECgwR
U3VycmV5IFVuaXZlcnNpdHkxEjAQBgNVBAsMCTVHIENlbnRyZTEZMBcGA1UEAwwQ
U2V2ZXJpbiBTa2lsbG1hbjCCASIwDQYJKoZIhvcNAQEBBQADggEPADCCAQoCggEB
ALkpQttBCHfFQYlzWLkvuGVW5XGr9JYOoxlgkkvIGvYuyfbL5/A0kdZc/ED3PuMz
OjpooTMXxIhmuZMNgNoOBHFEDIeSmZWs3fpI8Bs8vxa1UjB5kRzOI5beC8iZuaWd
ok/6dO13NESw+QVKelVwBZeDvUP2CtSDGdkto8OCdJ1ROphMt6V3ZtVewF8bi7ZH
zfFmUUhIZycKyYPumxepr/Gb8wmeYo7SSCn8Gt3mKfvYrrSUzfpRf61minUmtSFv
U7CXud6pYTItMfEAAy2EYI6d7AExwjV/M+Mv23GdOoYQczMYbnMmt2Dkgp1QM0E5
8AQCPVxPndJ7LoO94EkkzykCAwEAAaMvMC0wCQYDVR0TBAIwADALBgNVHQ8EBAMC
BeAwEwYDVR0lBAwwCgYIKwYBBQUHAwkwDQYJKoZIhvcNAQELBQADggEBAJZ5x11u
0DxwWTAelyqf+WnT5GPhAJcngVsTz/NqZG6vrCeDEWts6rlV/BdjYfqmYEXWcTKM
wnSL7jA3eQ094/90BtUJkkWPDGERRCGsu4OiVpTMfzdNdPJZux/LrvGOtbKx3n2V
7q9yF7r2I7g5cFhKXG+6J65ZME0QbUUMEJBUqzeigcuiHOq2nte46/Bx6E/5NeCe
fvnshNaOLOL/zGa/d3wbBXZA/0Cux+aDA/eZAOQBu2Qa52UINQHcZkAm+DdoBHCV
9RwKCOQgy+NwYZHejEfwmb9y1/AuMmf9Baa8yXejf4nn5XLX0jYjmEVexsDMuzMF
ca8j/aMt6PYgMP0=
-----END CERTIFICATE-----
