Certificate:
    Data:
        Version: 3 (0x2)
        Serial Number: 2 (0x2)
    Signature Algorithm: sha256WithRSAEncryption
        Issuer: C=GB, ST=Surrey, L=Egham, O=TIHM Project (RHUL), OU=ISG, CN=TIHM ROOT CA
        Validity
            Not Before: Feb 12 21:40:01 2017 GMT
            Not After : Feb 11 21:40:01 2022 GMT
        Subject: C=GB, ST=Surrey, L=Egham, O=TIHM Project (RHUL), OU=ISG, CN=TIHM Registration Authority
        Subject Public Key Info:
            Public Key Algorithm: rsaEncryption
                Public-Key: (2048 bit)
                Modulus:
                    00:a8:2e:13:69:f3:a9:a8:7e:09:ea:ad:f7:66:40:
                    3a:8f:0e:8e:54:97:0a:ab:38:f3:44:21:ea:5c:e1:
                    9d:d6:a6:c7:70:10:02:6d:1a:49:3e:da:d5:bf:a4:
                    29:ef:14:96:38:86:2c:81:70:49:c7:76:84:f8:af:
                    35:be:78:dd:f6:10:8b:18:e7:97:1c:2b:61:68:35:
                    b8:49:cf:df:fa:37:8b:7f:4e:f5:31:a7:21:ea:5e:
                    55:a9:68:7a:5d:5e:e2:94:7b:e6:02:bb:d0:5b:c2:
                    2e:cc:4e:2e:a7:6d:15:e8:69:6a:d9:3b:d7:8b:3f:
                    77:aa:ab:42:7d:b3:ba:37:85:e9:d7:63:5b:0d:a5:
                    66:19:ce:d8:0f:6d:0c:ed:bf:d8:bc:35:25:8b:9b:
                    6a:59:ff:a5:e2:8f:15:ae:08:d1:95:51:1c:29:fa:
                    07:71:f4:77:df:3b:a7:6d:55:7e:58:70:1c:26:f5:
                    b3:75:99:10:d1:26:42:36:81:df:77:b8:a9:66:14:
                    1d:0c:6d:81:4c:c2:03:45:de:fa:f3:73:77:3b:87:
                    02:86:6d:18:04:27:3e:b8:be:d4:ed:03:78:42:de:
                    3b:4a:4d:42:c3:70:a9:2a:41:bd:37:d4:ca:ab:5a:
                    26:6a:4d:be:82:e7:61:da:08:6e:ce:bc:c0:b8:eb:
                    89:b7
                Exponent: 65537 (0x10001)
        X509v3 extensions:
            X509v3 Basic Constraints: 
                CA:FALSE
            X509v3 Key Usage: 
                Digital Signature, Non Repudiation, Key Encipherment
            X509v3 Extended Key Usage: 
                OCSP Signing
            Authority Information Access: 
                OCSP - URI:http://ocsp.tihm.isg.rhul.ac.uk

    Signature Algorithm: sha256WithRSAEncryption
         73:51:7e:a5:b9:09:cf:fe:79:59:1f:e3:ca:87:ed:32:17:c2:
         2a:ca:a1:8e:e9:eb:9b:51:f7:be:99:ef:8a:14:06:5d:85:f9:
         4d:02:3e:95:3b:8c:3e:8b:90:94:c2:a4:d7:b8:f2:55:09:bb:
         7e:40:83:b4:d7:b2:ee:7b:5c:7a:76:b1:7f:c6:a7:7f:a2:a0:
         b0:94:45:24:72:d5:ed:c8:7a:cd:c0:94:58:70:e4:8a:fe:d2:
         65:42:da:d8:57:ed:8e:2b:24:c2:32:78:c4:c3:32:ed:f2:9e:
         d5:6c:63:c7:e3:85:63:91:e2:fc:76:b9:71:4b:cf:5b:fd:1d:
         74:a4:6f:16:6b:ef:7c:9c:27:1a:8d:b9:81:62:dd:c2:7c:b2:
         60:d1:2c:ab:2f:86:7c:1a:1f:3c:dd:9d:07:de:a5:fc:85:bb:
         7b:37:a2:d7:0f:ea:76:02:a8:9b:36:fe:6c:63:2f:99:6c:6c:
         20:1e:ed:77:c1:31:4f:7e:e5:18:7e:b7:50:c8:06:21:e2:4b:
         91:e2:f0:79:47:78:7b:c8:dd:85:2d:9a:7d:15:75:11:5b:69:
         fc:77:e0:4c:92:a6:b1:67:35:eb:1c:2d:7b:6b:ed:dd:54:8e:
         ca:89:5a:dd:bf:4a:60:b4:73:b6:38:4d:0c:d4:d5:b0:84:db:
         be:0c:7d:96
-----BEGIN CERTIFICATE-----
MIID2TCCAsGgAwIBAgIBAjANBgkqhkiG9w0BAQsFADBxMQswCQYDVQQGEwJHQjEP
MA0GA1UECAwGU3VycmV5MQ4wDAYDVQQHDAVFZ2hhbTEcMBoGA1UECgwTVElITSBQ
cm9qZWN0IChSSFVMKTEMMAoGA1UECwwDSVNHMRUwEwYDVQQDDAxUSUhNIFJPT1Qg
Q0EwHhcNMTcwMjEyMjE0MDAxWhcNMjIwMjExMjE0MDAxWjCBgDELMAkGA1UEBhMC
R0IxDzANBgNVBAgMBlN1cnJleTEOMAwGA1UEBwwFRWdoYW0xHDAaBgNVBAoME1RJ
SE0gUHJvamVjdCAoUkhVTCkxDDAKBgNVBAsMA0lTRzEkMCIGA1UEAwwbVElITSBS
ZWdpc3RyYXRpb24gQXV0aG9yaXR5MIIBIjANBgkqhkiG9w0BAQEFAAOCAQ8AMIIB
CgKCAQEAqC4TafOpqH4J6q33ZkA6jw6OVJcKqzjzRCHqXOGd1qbHcBACbRpJPtrV
v6Qp7xSWOIYsgXBJx3aE+K81vnjd9hCLGOeXHCthaDW4Sc/f+jeLf071Mach6l5V
qWh6XV7ilHvmArvQW8IuzE4up20V6Glq2TvXiz93qqtCfbO6N4Xp12NbDaVmGc7Y
D20M7b/YvDUli5tqWf+l4o8VrgjRlVEcKfoHcfR33zunbVV+WHAcJvWzdZkQ0SZC
NoHfd7ipZhQdDG2BTMIDRd7683N3O4cChm0YBCc+uL7U7QN4Qt47Sk1Cw3CpKkG9
N9TKq1omak2+gudh2ghuzrzAuOuJtwIDAQABo2wwajAJBgNVHRMEAjAAMAsGA1Ud
DwQEAwIF4DATBgNVHSUEDDAKBggrBgEFBQcDCTA7BggrBgEFBQcBAQQvMC0wKwYI
KwYBBQUHMAGGH2h0dHA6Ly9vY3NwLnRpaG0uaXNnLnJodWwuYWMudWswDQYJKoZI
hvcNAQELBQADggEBAHNRfqW5Cc/+eVkf48qH7TIXwirKoY7p65tR976Z74oUBl2F
+U0CPpU7jD6LkJTCpNe48lUJu35Ag7TXsu57XHp2sX/Gp3+ioLCURSRy1e3Ies3A
lFhw5Ir+0mVC2thX7Y4rJMIyeMTDMu3yntVsY8fjhWOR4vx2uXFLz1v9HXSkbxZr
73ycJxqNuYFi3cJ8smDRLKsvhnwaHzzdnQfepfyFu3s3otcP6nYCqJs2/mxjL5ls
bCAe7XfBMU9+5Rh+t1DIBiHiS5Hi8HlHeHvI3YUtmn0VdRFbafx34EySprFnNesc
LXtr7d1UjsqJWt2/SmC0c7Y4TQzU1bCE274MfZY=
-----END CERTIFICATE-----
