Certificate:
    Data:
        Version: 3 (0x2)
        Serial Number: 1 (0x1)
    Signature Algorithm: sha256WithRSAEncryption
        Issuer: C=GB, ST=London, L=London, O=TIHM Certificatiothority, OU=IG, CN=TIHM CA
        Validity
            Not Before: Jan 17 14:32:52 2017 GMT
            Not After : Jan 17 14:32:52 2020 GMT
        Subject: C=GB, ST=London, L=Egham, O=RHUL, OU=ISG, CN=Salaheddin/emailAddress=Salaheddin.darwish@rhul.ac.uk
        Subject Public Key Info:
            Public Key Algorithm: rsaEncryption
                Public-Key: (2048 bit)
                Modulus:
                    00:99:b7:1f:f5:6d:c6:41:e1:22:53:c0:e6:ff:e0:
                    0e:b6:a4:99:44:82:43:46:23:44:39:78:35:21:bf:
                    38:1f:e3:eb:20:dd:41:81:14:91:76:1d:68:f7:23:
                    11:9c:a7:2b:de:33:cb:53:32:31:dc:e0:1e:73:e9:
                    da:4f:0b:28:8a:ba:18:12:f0:d3:a7:cb:fa:d3:6c:
                    69:fe:01:5b:f4:52:47:3b:a5:da:67:54:de:cd:9a:
                    76:95:cc:fb:19:fa:95:8c:38:af:e1:4a:2f:3e:4a:
                    60:b2:88:5d:7f:08:54:c1:9c:13:5d:cd:72:53:aa:
                    4d:90:e5:95:8b:6f:76:1e:ec:fd:65:87:4c:23:08:
                    a2:3f:a6:70:35:31:77:52:17:a8:03:b0:10:fb:88:
                    d8:ee:87:49:0c:3a:b6:91:f2:e9:81:27:dd:5b:30:
                    d6:56:74:ec:c8:54:84:43:c8:df:5d:47:28:fd:56:
                    07:0c:69:5d:bd:96:32:4e:d5:09:65:f9:00:3a:3a:
                    48:a3:ba:ae:67:a9:9a:c8:97:a4:c2:bb:1d:b1:55:
                    34:fc:85:00:4a:61:03:4d:78:d3:bf:70:de:d4:db:
                    67:73:ac:92:5a:00:da:f6:1a:2e:24:b5:06:b3:ce:
                    0e:a1:74:57:62:cd:2c:80:1f:0a:ce:d7:9e:9f:c0:
                    8d:ff
                Exponent: 65537 (0x10001)
        X509v3 extensions:
            X509v3 Basic Constraints: 
                CA:FALSE
            X509v3 Key Usage: 
                Digital Signature, Non Repudiation, Key Encipherment
            X509v3 Extended Key Usage: 
                OCSP Signing
            Authority Information Access: 
                OCSP - URI:http://ocsp.pki.tihm.org:8888

    Signature Algorithm: sha256WithRSAEncryption
         6f:6b:31:51:fe:39:47:7e:dd:06:85:27:9e:99:fc:00:b5:a9:
         b1:fc:5c:49:10:e6:50:59:35:73:21:f7:36:22:dd:a7:87:c1:
         0a:af:d3:28:2f:eb:09:0f:ce:07:94:16:0e:22:1f:ca:2c:d6:
         9b:01:ed:b1:a1:2a:36:a1:2d:39:7c:83:75:b0:6f:97:38:32:
         c1:4d:86:a9:59:74:7c:4b:2d:4f:75:96:46:eb:d0:7e:ad:ed:
         82:d9:f7:a9:48:80:7b:ae:46:e1:2d:d9:74:b6:1a:3c:7b:de:
         05:4b:06:d9:a9:ab:a2:72:8d:19:c4:38:db:92:dc:f4:eb:ec:
         9d:ef:8b:71:5f:a8:8f:33:29:d8:5f:ec:0f:79:a8:d8:11:93:
         2b:dc:8e:45:cc:6b:a3:99:dc:e5:b4:0e:cc:cc:f7:d5:ae:c7:
         23:a5:6f:5d:4f:d9:5b:f5:cb:53:5f:ab:b7:8c:c9:d6:39:67:
         b4:47:50:f4:ce:5b:c2:ef:66:3a:1f:81:92:9b:2e:ca:96:11:
         ff:c2:16:5c:ca:a2:71:2a:a6:3d:2a:a0:5e:d7:6d:97:ef:3a:
         0b:59:97:35:c4:2f:f8:bf:cf:e3:be:80:65:65:09:41:2f:43:
         bd:3f:84:c5:d5:7e:9c:c8:e5:e2:5b:03:26:0b:83:f2:d9:c0:
         02:cf:b7:ef
-----BEGIN CERTIFICATE-----
MIID5TCCAs2gAwIBAgIBATANBgkqhkiG9w0BAQsFADBxMQswCQYDVQQGEwJHQjEP
MA0GA1UECAwGTG9uZG9uMQ8wDQYDVQQHDAZMb25kb24xITAfBgNVBAoMGFRJSE0g
Q2VydGlmaWNhdGlvdGhvcml0eTELMAkGA1UECwwCSUcxEDAOBgNVBAMMB1RJSE0g
Q0EwHhcNMTcwMTE3MTQzMjUyWhcNMjAwMTE3MTQzMjUyWjCBjjELMAkGA1UEBhMC
R0IxDzANBgNVBAgMBkxvbmRvbjEOMAwGA1UEBwwFRWdoYW0xDTALBgNVBAoMBFJI
VUwxDDAKBgNVBAsMA0lTRzETMBEGA1UEAwwKU2FsYWhlZGRpbjEsMCoGCSqGSIb3
DQEJARYdU2FsYWhlZGRpbi5kYXJ3aXNoQHJodWwuYWMudWswggEiMA0GCSqGSIb3
DQEBAQUAA4IBDwAwggEKAoIBAQCZtx/1bcZB4SJTwOb/4A62pJlEgkNGI0Q5eDUh
vzgf4+sg3UGBFJF2HWj3IxGcpyveM8tTMjHc4B5z6dpPCyiKuhgS8NOny/rTbGn+
AVv0Ukc7pdpnVN7NmnaVzPsZ+pWMOK/hSi8+SmCyiF1/CFTBnBNdzXJTqk2Q5ZWL
b3Ye7P1lh0wjCKI/pnA1MXdSF6gDsBD7iNjuh0kMOraR8umBJ91bMNZWdOzIVIRD
yN9dRyj9VgcMaV29ljJO1Qll+QA6Okijuq5nqZrIl6TCux2xVTT8hQBKYQNNeNO/
cN7U22dzrJJaANr2Gi4ktQazzg6hdFdizSyAHwrO156fwI3/AgMBAAGjajBoMAkG
A1UdEwQCMAAwCwYDVR0PBAQDAgXgMBMGA1UdJQQMMAoGCCsGAQUFBwMJMDkGCCsG
AQUFBwEBBC0wKzApBggrBgEFBQcwAYYdaHR0cDovL29jc3AucGtpLnRpaG0ub3Jn
Ojg4ODgwDQYJKoZIhvcNAQELBQADggEBAG9rMVH+OUd+3QaFJ56Z/AC1qbH8XEkQ
5lBZNXMh9zYi3aeHwQqv0ygv6wkPzgeUFg4iH8os1psB7bGhKjahLTl8g3Wwb5c4
MsFNhqlZdHxLLU91lkbr0H6t7YLZ96lIgHuuRuEt2XS2Gjx73gVLBtmpq6JyjRnE
ONuS3PTr7J3vi3FfqI8zKdhf7A95qNgRkyvcjkXMa6OZ3OW0DszM99WuxyOlb11P
2Vv1y1Nfq7eMydY5Z7RHUPTOW8LvZjofgZKbLsqWEf/CFlzKonEqpj0qoF7XbZfv
OgtZlzXEL/i/z+O+gGVlCUEvQ70/hMXVfpzI5eJbAyYLg/LZwALPt+8=
-----END CERTIFICATE-----
